target datalayout = "e-m:e-p270:32:32-p271:32:32-p272:64:64-i64:64-i128:128-f80:128-n8:16:32:64-S128"
target triple = "x86_64-unknown-linux-gnu"

%"class.icu_75::MessageFormat" = type { %"class.icu_75::Format.base", [6 x i8], %"class.icu_75::Locale", %"class.icu_75::MessagePattern", ptr, i32, ptr, i32, i32, i8, ptr, ptr, ptr, ptr, %"class.icu_75::MessageFormat::PluralSelectorProvider", %"class.icu_75::MessageFormat::PluralSelectorProvider" }
%"class.icu_75::Format.base" = type <{ %"class.icu_75::UObject", [157 x i8], [157 x i8] }>
%"class.icu_75::UObject" = type { ptr }
%"class.icu_75::Locale" = type <{ %"class.icu_75::UObject", [12 x i8], [6 x i8], [4 x i8], [2 x i8], i32, [4 x i8], ptr, [157 x i8], [3 x i8], ptr, i8, [7 x i8] }>
%"class.icu_75::MessagePattern" = type <{ %"class.icu_75::UObject", i32, [4 x i8], %"class.icu_75::UnicodeString", ptr, ptr, i32, [4 x i8], ptr, ptr, i32, i8, i8, i8, i8 }>
%"class.icu_75::UnicodeString" = type { %"class.icu_75::Replaceable", %"union.icu_75::UnicodeString::StackBufferOrFields" }
%"class.icu_75::Replaceable" = type { %"class.icu_75::UObject" }
%"union.icu_75::UnicodeString::StackBufferOrFields" = type { %struct.anon.0, [32 x i8] }
%struct.anon.0 = type { i16, i32, i32, ptr }
%"class.icu_75::MessageFormat::PluralSelectorProvider" = type <{ %"class.icu_75::PluralFormat::PluralSelector", ptr, ptr, i32, [4 x i8] }>
%"class.icu_75::PluralFormat::PluralSelector" = type { ptr }

; Function Attrs: mustprogress nounwind uwtable
define internal noundef signext i8 @_ZL9U_FAILURE10UErrorCode(i32 noundef %code) #0 {
entry:
  %code.addr = alloca i32, align 4
  store i32 %code, ptr %code.addr, align 4
  %0 = load i32, ptr %code.addr, align 4
  %cmp = icmp sgt i32 %0, 0
  %conv = zext i1 %cmp to i8
  ret i8 %conv
}

; Function Attrs: mustprogress uwtable
define noundef ptr @_ZNK6icu_7513MessageFormat22getDefaultNumberFormatER10UErrorCode(ptr noundef nonnull align 8 dereferenceable(816) %this, ptr noundef nonnull align 4 dereferenceable(4) %ec) #1 align 2 {
entry:
  %this.addr = alloca ptr, align 8
  %ec.addr = alloca ptr, align 8
  %t = alloca ptr, align 8
  store ptr %this, ptr %this.addr, align 8
  store ptr %ec, ptr %ec.addr, align 8
  %this1 = load ptr, ptr %this.addr, align 8
  %defaultNumberFormat = getelementptr inbounds %"class.icu_75::MessageFormat", ptr %this1, i32 0, i32 10
  %0 = load ptr, ptr %defaultNumberFormat, align 8
  %cmp = icmp eq ptr %0, null
  br i1 %cmp, label %if.then, label %if.end11

if.then:                                          ; preds = %entry
  store ptr %this1, ptr %t, align 8
  %fLocale = getelementptr inbounds %"class.icu_75::MessageFormat", ptr %this1, i32 0, i32 2
  %1 = load ptr, ptr %ec.addr, align 8
  %call = call noundef ptr @_ZN6icu_7512NumberFormat14createInstanceERKNS_6LocaleER10UErrorCode(ptr noundef nonnull align 8 dereferenceable(217) %fLocale, ptr noundef nonnull align 4 dereferenceable(4) %1)
  %2 = load ptr, ptr %t, align 8
  %defaultNumberFormat2 = getelementptr inbounds %"class.icu_75::MessageFormat", ptr %2, i32 0, i32 10
  store ptr %call, ptr %defaultNumberFormat2, align 8
  %3 = load ptr, ptr %ec.addr, align 8
  %4 = load i32, ptr %3, align 4
  %call3 = call noundef signext i8 @_ZL9U_FAILURE10UErrorCode(i32 noundef %4)
  %tobool = icmp ne i8 %call3, 0
  br i1 %tobool, label %if.then4, label %if.else

if.then4:                                         ; preds = %if.then
  %5 = load ptr, ptr %t, align 8
  %defaultNumberFormat5 = getelementptr inbounds %"class.icu_75::MessageFormat", ptr %5, i32 0, i32 10
  %6 = load ptr, ptr %defaultNumberFormat5, align 8
  %isnull = icmp eq ptr %6, null
  br i1 %isnull, label %delete.end, label %delete.notnull

delete.notnull:                                   ; preds = %if.then4
  %vtable = load ptr, ptr %6, align 8
  %vfn = getelementptr inbounds ptr, ptr %vtable, i64 1
  %7 = load ptr, ptr %vfn, align 8
  call void %7(ptr noundef nonnull align 8 dereferenceable(356) %6) #11
  br label %delete.end

delete.end:                                       ; preds = %delete.notnull, %if.then4
  %8 = load ptr, ptr %t, align 8
  %defaultNumberFormat6 = getelementptr inbounds %"class.icu_75::MessageFormat", ptr %8, i32 0, i32 10
  store ptr null, ptr %defaultNumberFormat6, align 8
  br label %if.end10

if.else:                                          ; preds = %if.then
  %9 = load ptr, ptr %t, align 8
  %defaultNumberFormat7 = getelementptr inbounds %"class.icu_75::MessageFormat", ptr %9, i32 0, i32 10
  %10 = load ptr, ptr %defaultNumberFormat7, align 8
  %cmp8 = icmp eq ptr %10, null
  br i1 %cmp8, label %if.then9, label %if.end

if.then9:                                         ; preds = %if.else
  %11 = load ptr, ptr %ec.addr, align 8
  store i32 7, ptr %11, align 4
  br label %if.end

if.end:                                           ; preds = %if.then9, %if.else
  br label %if.end10

if.end10:                                         ; preds = %if.end, %delete.end
  br label %if.end11

if.end11:                                         ; preds = %if.end10, %entry
  %defaultNumberFormat12 = getelementptr inbounds %"class.icu_75::MessageFormat", ptr %this1, i32 0, i32 10
  %12 = load ptr, ptr %defaultNumberFormat12, align 8
  ret ptr %12
}