; Function Attrs: mustprogress uwtable
define noundef ptr @_ZNK6icu_7513MessageFormat22getDefaultNumberFormatER10UErrorCode(ptr noundef nonnull align 8 dereferenceable(816) %this, ptr noundef nonnull align 4 dereferenceable(4) %ec) local_unnamed_addr #1 align 2 {
entry:
  %defaultNumberFormat = getelementptr inbounds i8, ptr %this, i64 720
  %0 = load ptr, ptr %defaultNumberFormat, align 8
  %cmp = icmp eq ptr %0, null
  br i1 %cmp, label %if.then, label %if.end11

if.then:                                          ; preds = %entry
  %fLocale = getelementptr inbounds i8, ptr %this, i64 328
  %call = tail call noundef ptr @_ZN6icu_7512NumberFormat14createInstanceERKNS_6LocaleER10UErrorCode(ptr noundef nonnull align 8 dereferenceable(217) %fLocale, ptr noundef nonnull align 4 dereferenceable(4) %ec)
  store ptr %call, ptr %defaultNumberFormat, align 8
  %1 = load i32, ptr %ec, align 4
  %cmp.i = icmp slt i32 %1, 1
  %cmp8 = icmp eq ptr %call, null
  br i1 %cmp.i, label %if.else, label %if.then4

if.then4:                                         ; preds = %if.then
  br i1 %cmp8, label %delete.end, label %delete.notnull

delete.notnull:                                   ; preds = %if.then4
  %vtable = load ptr, ptr %call, align 8
  %vfn = getelementptr inbounds i8, ptr %vtable, i64 8
  %2 = load ptr, ptr %vfn, align 8
  tail call void %2(ptr noundef nonnull align 8 dereferenceable(356) %call) #19
  br label %delete.end

delete.end:                                       ; preds = %delete.notnull, %if.then4
  store ptr null, ptr %defaultNumberFormat, align 8
  br label %if.end11

if.else:                                          ; preds = %if.then
  br i1 %cmp8, label %if.then9, label %if.end11

if.then9:                                         ; preds = %if.else
  store i32 7, ptr %ec, align 4
  %.pre = load ptr, ptr %defaultNumberFormat, align 8
  br label %if.end11

if.end11:                                         ; preds = %delete.end, %if.then9, %if.else, %entry
  %3 = phi ptr [ null, %delete.end ], [ %.pre, %if.then9 ], [ %call, %if.else ], [ %0, %entry ]
  ret ptr %3
}